; ModuleID = '17/1270.c'
source_filename = "17/1270.c"
target datalayout = "e-m:e-p270:32:32-p271:32:32-p272:64:64-i64:64-f80:128-n8:16:32:64-S128"
target triple = "x86_64-pc-linux-gnu"

@.str = private unnamed_addr constant [3 x i8] c"%d\00", align 1
@.str.1 = private unnamed_addr constant [3 x i8] c"%s\00", align 1
@.str.2 = private unnamed_addr constant [2 x i8] c"(\00", align 1
@.str.3 = private unnamed_addr constant [2 x i8] c")\00", align 1
@.str.4 = private unnamed_addr constant [3 x i8] c"%c\00", align 1
@.str.5 = private unnamed_addr constant [2 x i8] c"\0A\00", align 1
@.str.6 = private unnamed_addr constant [2 x i8] c" \00", align 1

; Function Attrs: noinline nounwind uwtable
define dso_local i32 @main() #0 {
  %1 = alloca i32, align 4
  %2 = alloca i32, align 4
  %3 = alloca i32, align 4
  %4 = alloca [1001 x i8], align 16
  %5 = alloca [1001 x i8], align 16
  %6 = alloca i32, align 4
  %7 = alloca i32, align 4
  %8 = alloca i32, align 4
  %9 = alloca i32, align 4
  %10 = alloca i32, align 4
  %11 = alloca i32, align 4
  %12 = alloca i32, align 4
  store i32 0, i32* %1, align 4
  %13 = call i32 (i8*, ...) @__isoc99_scanf(i8* getelementptr inbounds ([3 x i8], [3 x i8]* @.str, i64 0, i64 0), i32* %2)
  store i32 0, i32* %3, align 4
  br label %14

14:                                               ; preds = %212, %0
  %15 = load i32, i32* %3, align 4
  %16 = load i32, i32* %2, align 4
  %17 = icmp slt i32 %15, %16
  br i1 %17, label %18, label %215

18:                                               ; preds = %14
  %19 = getelementptr inbounds [1001 x i8], [1001 x i8]* %4, i64 0, i64 0
  %20 = call i32 (i8*, ...) @__isoc99_scanf(i8* getelementptr inbounds ([3 x i8], [3 x i8]* @.str.1, i64 0, i64 0), i8* %19)
  %21 = bitcast [1001 x i8]* %5 to i8*
  call void @llvm.memset.p0i8.i64(i8* align 16 %21, i8 0, i64 1001, i1 false)
  %22 = getelementptr inbounds [1001 x i8], [1001 x i8]* %4, i64 0, i64 0
  %23 = call i64 @strlen(i8* %22) #4
  %24 = trunc i64 %23 to i32
  store i32 %24, i32* %8, align 4
  store i32 0, i32* %6, align 4
  br label %25

25:                                               ; preds = %139, %18
  %26 = load i32, i32* %6, align 4
  %27 = load i32, i32* %8, align 4
  %28 = icmp slt i32 %26, %27
  br i1 %28, label %29, label %142

29:                                               ; preds = %25
  %30 = load i32, i32* %6, align 4
  %31 = sext i32 %30 to i64
  %32 = getelementptr inbounds [1001 x i8], [1001 x i8]* %4, i64 0, i64 %31
  %33 = load i8, i8* %32, align 1
  %34 = sext i8 %33 to i32
  %35 = icmp eq i32 %34, 40
  br i1 %35, label %36, label %84

36:                                               ; preds = %29
  store i32 1, i32* %9, align 4
  store i32 0, i32* %10, align 4
  %37 = load i32, i32* %6, align 4
  %38 = add nsw i32 %37, 1
  store i32 %38, i32* %7, align 4
  br label %39

39:                                               ; preds = %69, %36
  %40 = load i32, i32* %7, align 4
  %41 = load i32, i32* %8, align 4
  %42 = icmp slt i32 %40, %41
  br i1 %42, label %43, label %72

43:                                               ; preds = %39
  %44 = load i32, i32* %7, align 4
  %45 = sext i32 %44 to i64
  %46 = getelementptr inbounds [1001 x i8], [1001 x i8]* %4, i64 0, i64 %45
  %47 = load i8, i8* %46, align 1
  %48 = sext i8 %47 to i32
  %49 = icmp eq i32 %48, 40
  br i1 %49, label %50, label %53

50:                                               ; preds = %43
  %51 = load i32, i32* %9, align 4
  %52 = add nsw i32 %51, 1
  store i32 %52, i32* %9, align 4
  br label %53

53:                                               ; preds = %50, %43
  %54 = load i32, i32* %7, align 4
  %55 = sext i32 %54 to i64
  %56 = getelementptr inbounds [1001 x i8], [1001 x i8]* %4, i64 0, i64 %55
  %57 = load i8, i8* %56, align 1
  %58 = sext i8 %57 to i32
  %59 = icmp eq i32 %58, 41
  br i1 %59, label %60, label %63

60:                                               ; preds = %53
  %61 = load i32, i32* %10, align 4
  %62 = add nsw i32 %61, 1
  store i32 %62, i32* %10, align 4
  br label %63

63:                                               ; preds = %60, %53
  %64 = load i32, i32* %9, align 4
  %65 = load i32, i32* %10, align 4
  %66 = icmp eq i32 %64, %65
  br i1 %66, label %67, label %68

67:                                               ; preds = %63
  br label %72

68:                                               ; preds = %63
  br label %69

69:                                               ; preds = %68
  %70 = load i32, i32* %7, align 4
  %71 = add nsw i32 %70, 1
  store i32 %71, i32* %7, align 4
  br label %39

72:                                               ; preds = %67, %39
  %73 = load i32, i32* %9, align 4
  %74 = load i32, i32* %10, align 4
  %75 = icmp ne i32 %73, %74
  br i1 %75, label %76, label %83

76:                                               ; preds = %72
  %77 = load i32, i32* %6, align 4
  %78 = sext i32 %77 to i64
  %79 = getelementptr inbounds [1001 x i8], [1001 x i8]* %4, i64 0, i64 %78
  store i8 0, i8* %79, align 1
  %80 = load i32, i32* %6, align 4
  %81 = sext i32 %80 to i64
  %82 = getelementptr inbounds [1001 x i8], [1001 x i8]* %5, i64 0, i64 %81
  store i8 36, i8* %82, align 1
  br label %83

83:                                               ; preds = %76, %72
  br label %84

84:                                               ; preds = %83, %29
  %85 = load i32, i32* %6, align 4
  %86 = sext i32 %85 to i64
  %87 = getelementptr inbounds [1001 x i8], [1001 x i8]* %4, i64 0, i64 %86
  %88 = load i8, i8* %87, align 1
  %89 = sext i8 %88 to i32
  %90 = icmp eq i32 %89, 41
  br i1 %90, label %91, label %138

91:                                               ; preds = %84
  store i32 0, i32* %11, align 4
  store i32 1, i32* %12, align 4
  %92 = load i32, i32* %6, align 4
  %93 = sub nsw i32 %92, 1
  store i32 %93, i32* %7, align 4
  br label %94

94:                                               ; preds = %123, %91
  %95 = load i32, i32* %7, align 4
  %96 = icmp sge i32 %95, 0
  br i1 %96, label %97, label %126

97:                                               ; preds = %94
  %98 = load i32, i32* %7, align 4
  %99 = sext i32 %98 to i64
  %100 = getelementptr inbounds [1001 x i8], [1001 x i8]* %4, i64 0, i64 %99
  %101 = load i8, i8* %100, align 1
  %102 = sext i8 %101 to i32
  %103 = icmp eq i32 %102, 40
  br i1 %103, label %104, label %107

104:                                              ; preds = %97
  %105 = load i32, i32* %11, align 4
  %106 = add nsw i32 %105, 1
  store i32 %106, i32* %11, align 4
  br label %107

107:                                              ; preds = %104, %97
  %108 = load i32, i32* %7, align 4
  %109 = sext i32 %108 to i64
  %110 = getelementptr inbounds [1001 x i8], [1001 x i8]* %4, i64 0, i64 %109
  %111 = load i8, i8* %110, align 1
  %112 = sext i8 %111 to i32
  %113 = icmp eq i32 %112, 41
  br i1 %113, label %114, label %117

114:                                              ; preds = %107
  %115 = load i32, i32* %12, align 4
  %116 = add nsw i32 %115, 1
  store i32 %116, i32* %12, align 4
  br label %117

117:                                              ; preds = %114, %107
  %118 = load i32, i32* %11, align 4
  %119 = load i32, i32* %12, align 4
  %120 = icmp eq i32 %118, %119
  br i1 %120, label %121, label %122

121:                                              ; preds = %117
  br label %126

122:                                              ; preds = %117
  br label %123

123:                                              ; preds = %122
  %124 = load i32, i32* %7, align 4
  %125 = add nsw i32 %124, -1
  store i32 %125, i32* %7, align 4
  br label %94

126:                                              ; preds = %121, %94
  %127 = load i32, i32* %11, align 4
  %128 = load i32, i32* %12, align 4
  %129 = icmp ne i32 %127, %128
  br i1 %129, label %130, label %137

130:                                              ; preds = %126
  %131 = load i32, i32* %6, align 4
  %132 = sext i32 %131 to i64
  %133 = getelementptr inbounds [1001 x i8], [1001 x i8]* %5, i64 0, i64 %132
  store i8 63, i8* %133, align 1
  %134 = load i32, i32* %6, align 4
  %135 = sext i32 %134 to i64
  %136 = getelementptr inbounds [1001 x i8], [1001 x i8]* %4, i64 0, i64 %135
  store i8 1, i8* %136, align 1
  br label %137

137:                                              ; preds = %130, %126
  br label %138

138:                                              ; preds = %137, %84
  br label %139

139:                                              ; preds = %138
  %140 = load i32, i32* %6, align 4
  %141 = add nsw i32 %140, 1
  store i32 %141, i32* %6, align 4
  br label %25

142:                                              ; preds = %25
  store i32 0, i32* %6, align 4
  br label %143

143:                                              ; preds = %174, %142
  %144 = load i32, i32* %6, align 4
  %145 = load i32, i32* %8, align 4
  %146 = icmp slt i32 %144, %145
  br i1 %146, label %147, label %177

147:                                              ; preds = %143
  %148 = load i32, i32* %6, align 4
  %149 = sext i32 %148 to i64
  %150 = getelementptr inbounds [1001 x i8], [1001 x i8]* %4, i64 0, i64 %149
  %151 = load i8, i8* %150, align 1
  %152 = sext i8 %151 to i32
  %153 = icmp eq i32 %152, 0
  br i1 %153, label %154, label %156

154:                                              ; preds = %147
  %155 = call i32 (i8*, ...) @printf(i8* getelementptr inbounds ([2 x i8], [2 x i8]* @.str.2, i64 0, i64 0))
  br label %173

156:                                              ; preds = %147
  %157 = load i32, i32* %6, align 4
  %158 = sext i32 %157 to i64
  %159 = getelementptr inbounds [1001 x i8], [1001 x i8]* %4, i64 0, i64 %158
  %160 = load i8, i8* %159, align 1
  %161 = sext i8 %160 to i32
  %162 = icmp eq i32 %161, 1
  br i1 %162, label %163, label %165

163:                                              ; preds = %156
  %164 = call i32 (i8*, ...) @printf(i8* getelementptr inbounds ([2 x i8], [2 x i8]* @.str.3, i64 0, i64 0))
  br label %172

165:                                              ; preds = %156
  %166 = load i32, i32* %6, align 4
  %167 = sext i32 %166 to i64
  %168 = getelementptr inbounds [1001 x i8], [1001 x i8]* %4, i64 0, i64 %167
  %169 = load i8, i8* %168, align 1
  %170 = sext i8 %169 to i32
  %171 = call i32 (i8*, ...) @printf(i8* getelementptr inbounds ([3 x i8], [3 x i8]* @.str.4, i64 0, i64 0), i32 %170)
  br label %172

172:                                              ; preds = %165, %163
  br label %173

173:                                              ; preds = %172, %154
  br label %174

174:                                              ; preds = %173
  %175 = load i32, i32* %6, align 4
  %176 = add nsw i32 %175, 1
  store i32 %176, i32* %6, align 4
  br label %143

177:                                              ; preds = %143
  %178 = call i32 (i8*, ...) @printf(i8* getelementptr inbounds ([2 x i8], [2 x i8]* @.str.5, i64 0, i64 0))
  store i32 0, i32* %6, align 4
  br label %179

179:                                              ; preds = %207, %177
  %180 = load i32, i32* %6, align 4
  %181 = load i32, i32* %8, align 4
  %182 = icmp slt i32 %180, %181
  br i1 %182, label %183, label %210

183:                                              ; preds = %179
  %184 = load i32, i32* %6, align 4
  %185 = sext i32 %184 to i64
  %186 = getelementptr inbounds [1001 x i8], [1001 x i8]* %5, i64 0, i64 %185
  %187 = load i8, i8* %186, align 1
  %188 = sext i8 %187 to i32
  %189 = icmp eq i32 %188, 63
  br i1 %189, label %197, label %190

190:                                              ; preds = %183
  %191 = load i32, i32* %6, align 4
  %192 = sext i32 %191 to i64
  %193 = getelementptr inbounds [1001 x i8], [1001 x i8]* %5, i64 0, i64 %192
  %194 = load i8, i8* %193, align 1
  %195 = sext i8 %194 to i32
  %196 = icmp eq i32 %195, 36
  br i1 %196, label %197, label %204

197:                                              ; preds = %190, %183
  %198 = load i32, i32* %6, align 4
  %199 = sext i32 %198 to i64
  %200 = getelementptr inbounds [1001 x i8], [1001 x i8]* %5, i64 0, i64 %199
  %201 = load i8, i8* %200, align 1
  %202 = sext i8 %201 to i32
  %203 = call i32 (i8*, ...) @printf(i8* getelementptr inbounds ([3 x i8], [3 x i8]* @.str.4, i64 0, i64 0), i32 %202)
  br label %206

204:                                              ; preds = %190
  %205 = call i32 (i8*, ...) @printf(i8* getelementptr inbounds ([2 x i8], [2 x i8]* @.str.6, i64 0, i64 0))
  br label %206

206:                                              ; preds = %204, %197
  br label %207

207:                                              ; preds = %206
  %208 = load i32, i32* %6, align 4
  %209 = add nsw i32 %208, 1
  store i32 %209, i32* %6, align 4
  br label %179

210:                                              ; preds = %179
  %211 = call i32 (i8*, ...) @printf(i8* getelementptr inbounds ([2 x i8], [2 x i8]* @.str.5, i64 0, i64 0))
  br label %212

212:                                              ; preds = %210
  %213 = load i32, i32* %3, align 4
  %214 = add nsw i32 %213, 1
  store i32 %214, i32* %3, align 4
  br label %14

215:                                              ; preds = %14
  ret i32 0
}

declare dso_local i32 @__isoc99_scanf(i8*, ...) #1

; Function Attrs: argmemonly nounwind willreturn
declare void @llvm.memset.p0i8.i64(i8* nocapture writeonly, i8, i64, i1 immarg) #2

; Function Attrs: nounwind readonly
declare dso_local i64 @strlen(i8*) #3

declare dso_local i32 @printf(i8*, ...) #1


!llvm.module.flags = !{!0}
!llvm.ident = !{!1}

!0 = !{i32 1, !"wchar_size", i32 4}
!1 = !{!"clang version 10.0.0-4ubuntu1 "}
